libflxmlrpc.so.1 libflxmlrpc1 #MINVER#
 _ZN10MethodHelp4helpB5cxx11Ev@Base 0
 _ZN10MethodHelp7executeERN6XmlRpc11XmlRpcValueES2_@Base 0
 _ZN10MethodHelpD0Ev@Base 0
 _ZN10MethodHelpD1Ev@Base 0
 _ZN10MethodHelpD2Ev@Base 0
 _ZN11ListMethods4helpB5cxx11Ev@Base 0
 _ZN11ListMethods7executeERN6XmlRpc11XmlRpcValueES2_@Base 0
 _ZN11ListMethodsD0Ev@Base 0
 _ZN11ListMethodsD1Ev@Base 0
 _ZN11ListMethodsD2Ev@Base 0
 _ZN17DefaultLogHandler3logEiPKc@Base 0
 _ZN17DefaultLogHandlerD0Ev@Base 0
 _ZN17DefaultLogHandlerD1Ev@Base 0
 _ZN17DefaultLogHandlerD2Ev@Base 0
 _ZN19DefaultErrorHandler5errorEPKc@Base 0
 _ZN19DefaultErrorHandlerD0Ev@Base 0
 _ZN19DefaultErrorHandlerD1Ev@Base 0
 _ZN19DefaultErrorHandlerD2Ev@Base 0
 _ZN6XmlRpc10XmlRpcUtil12nextTagIsEndEPKcRKNSt7__cxx1112basic_stringIcSt11char_traitsIcESaIcEEEPi@Base 0
 _ZN6XmlRpc10XmlRpcUtil3logEiPKcz@Base 0
 _ZN6XmlRpc10XmlRpcUtil5errorEPKcz@Base 0
 _ZN6XmlRpc10XmlRpcUtil7findTagEPKcRKNSt7__cxx1112basic_stringIcSt11char_traitsIcESaIcEEEPiPb@Base 0
 _ZN6XmlRpc10XmlRpcUtil8parseTagEPKcRKNSt7__cxx1112basic_stringIcSt11char_traitsIcESaIcEEEPiRS8_@Base 0
 _ZN6XmlRpc10XmlRpcUtil9nextTagIsEPKcRKNSt7__cxx1112basic_stringIcSt11char_traitsIcESaIcEEEPiPb@Base 0
 _ZN6XmlRpc10XmlRpcUtil9xmlDecodeERKNSt7__cxx1112basic_stringIcSt11char_traitsIcESaIcEEE@Base 0
 _ZN6XmlRpc10XmlRpcUtil9xmlEncodeERKNSt7__cxx1112basic_stringIcSt11char_traitsIcESaIcEEE@Base 0
 _ZN6XmlRpc11XmlRpcValue10assertTypeENS0_4TypeE@Base 0
 _ZN6XmlRpc11XmlRpcValue10intFromXmlERKNSt7__cxx1112basic_stringIcSt11char_traitsIcESaIcEEEPi@Base 0
 _ZN6XmlRpc11XmlRpcValue10invalidateEv@Base 0
 _ZN6XmlRpc11XmlRpcValue11assertArrayEi@Base 0
 _ZN6XmlRpc11XmlRpcValue11boolFromXmlERKNSt7__cxx1112basic_stringIcSt11char_traitsIcESaIcEEEPi@Base 0
 _ZN6XmlRpc11XmlRpcValue11timeFromXmlERKNSt7__cxx1112basic_stringIcSt11char_traitsIcESaIcEEEPi@Base 0
 _ZN6XmlRpc11XmlRpcValue12arrayFromXmlERKNSt7__cxx1112basic_stringIcSt11char_traitsIcESaIcEEEPi@Base 0
 _ZN6XmlRpc11XmlRpcValue12assertStructEv@Base 0
 _ZN6XmlRpc11XmlRpcValue13_doubleFormatB5cxx11E@Base 0
 _ZN6XmlRpc11XmlRpcValue13binaryFromXmlERKNSt7__cxx1112basic_stringIcSt11char_traitsIcESaIcEEEPi@Base 0
 _ZN6XmlRpc11XmlRpcValue13doubleFromXmlERKNSt7__cxx1112basic_stringIcSt11char_traitsIcESaIcEEEPi@Base 0
 _ZN6XmlRpc11XmlRpcValue13stringFromXmlERKNSt7__cxx1112basic_stringIcSt11char_traitsIcESaIcEEEPi@Base 0
 _ZN6XmlRpc11XmlRpcValue13structFromXmlERKNSt7__cxx1112basic_stringIcSt11char_traitsIcESaIcEEEPi@Base 0
 _ZN6XmlRpc11XmlRpcValue7fromXmlERKNSt7__cxx1112basic_stringIcSt11char_traitsIcESaIcEEEPi@Base 0
 _ZN6XmlRpc11XmlRpcValueaSEPKc@Base 0
 _ZN6XmlRpc11XmlRpcValueaSERKS0_@Base 0
 _ZN6XmlRpc11XmlRpcValueixEi@Base 0
 _ZN6XmlRpc12XmlRpcClient10readHeaderEv@Base 0
 _ZN6XmlRpc12XmlRpcClient11handleEventEj@Base 0
 _ZN6XmlRpc12XmlRpcClient11parseHeaderEv@Base 0
 _ZN6XmlRpc12XmlRpcClient12readResponseEv@Base 0
 _ZN6XmlRpc12XmlRpcClient12writeRequestEv@Base 0
 _ZN6XmlRpc12XmlRpcClient13parseResponseERNS_11XmlRpcValueE@Base 0
 _ZN6XmlRpc12XmlRpcClient14generateHeaderERKNSt7__cxx1112basic_stringIcSt11char_traitsIcESaIcEEE@Base 0
 _ZN6XmlRpc12XmlRpcClient15generateRequestEPKcRKNS_11XmlRpcValueE@Base 0
 _ZN6XmlRpc12XmlRpcClient15setupConnectionEv@Base 0
 _ZN6XmlRpc12XmlRpcClient5closeEv@Base 0
 _ZN6XmlRpc12XmlRpcClient7executeEPKcRKNS_11XmlRpcValueERS3_d@Base 0
 _ZN6XmlRpc12XmlRpcClient9doConnectEv@Base 0
 _ZN6XmlRpc12XmlRpcClientC1EPKciS2_@Base 0
 _ZN6XmlRpc12XmlRpcClientC1EPKciS2_S2_S2_@Base 0
 _ZN6XmlRpc12XmlRpcClientC2EPKciS2_@Base 0
 _ZN6XmlRpc12XmlRpcClientC2EPKciS2_S2_S2_@Base 0
 _ZN6XmlRpc12XmlRpcClientD0Ev@Base 0
 _ZN6XmlRpc12XmlRpcClientD1Ev@Base 0
 _ZN6XmlRpc12XmlRpcClientD2Ev@Base 0
 _ZN6XmlRpc12XmlRpcServer10METHODNAMEB5cxx11E@Base 0
 _ZN6XmlRpc12XmlRpcServer10PARAMS_TAGE@Base 0
 _ZN6XmlRpc12XmlRpcServer11FAULTSTRINGB5cxx11E@Base 0
 _ZN6XmlRpc12XmlRpcServer11handleEventEj@Base 0
 _ZN6XmlRpc12XmlRpcServer11listMethodsERNS_11XmlRpcValueE@Base 0
 _ZN6XmlRpc12XmlRpcServer12parseRequestERKNSt7__cxx1112basic_stringIcSt11char_traitsIcESaIcEEERNS_11XmlRpcValueE@Base 0
 _ZN6XmlRpc12XmlRpcServer12removeMethodEPNS_18XmlRpcServerMethodE@Base 0
 _ZN6XmlRpc12XmlRpcServer12removeMethodERKNSt7__cxx1112basic_stringIcSt11char_traitsIcESaIcEEE@Base 0
 _ZN6XmlRpc12XmlRpcServer13bindAndListenEii@Base 0
 _ZN6XmlRpc12XmlRpcServer13executeMethodERKNSt7__cxx1112basic_stringIcSt11char_traitsIcESaIcEEERNS_11XmlRpcValueESA_@Base 0
 _ZN6XmlRpc12XmlRpcServer14METHODNAME_TAGE@Base 0
 _ZN6XmlRpc12XmlRpcServer14executeRequestERKNSt7__cxx1112basic_stringIcSt11char_traitsIcESaIcEEE@Base 0
 _ZN6XmlRpc12XmlRpcServer14generateHeaderERKNSt7__cxx1112basic_stringIcSt11char_traitsIcESaIcEEE@Base 0
 _ZN6XmlRpc12XmlRpcServer16acceptConnectionEv@Base 0
 _ZN6XmlRpc12XmlRpcServer16createConnectionEi@Base 0
 _ZN6XmlRpc12XmlRpcServer16executeMulticallERKNSt7__cxx1112basic_stringIcSt11char_traitsIcESaIcEEERNS_11XmlRpcValueESA_@Base 0
 _ZN6XmlRpc12XmlRpcServer16generateResponseERKNSt7__cxx1112basic_stringIcSt11char_traitsIcESaIcEEE@Base 0
 _ZN6XmlRpc12XmlRpcServer16removeConnectionEPNS_22XmlRpcServerConnectionE@Base 0
 _ZN6XmlRpc12XmlRpcServer18dispatchConnectionEPNS_22XmlRpcServerConnectionE@Base 0
 _ZN6XmlRpc12XmlRpcServer19enableIntrospectionEb@Base 0
 _ZN6XmlRpc12XmlRpcServer21generateFaultResponseERKNSt7__cxx1112basic_stringIcSt11char_traitsIcESaIcEEEi@Base 0
 _ZN6XmlRpc12XmlRpcServer4exitEv@Base 0
 _ZN6XmlRpc12XmlRpcServer4workEd@Base 0
 _ZN6XmlRpc12XmlRpcServer6PARAMSB5cxx11E@Base 0
 _ZN6XmlRpc12XmlRpcServer8shutdownEv@Base 0
 _ZN6XmlRpc12XmlRpcServer9FAULTCODEB5cxx11E@Base 0
 _ZN6XmlRpc12XmlRpcServer9PARAM_TAGE@Base 0
 _ZN6XmlRpc12XmlRpcServer9addMethodEPNS_18XmlRpcServerMethodE@Base 0
 _ZN6XmlRpc12XmlRpcServerC1Ev@Base 0
 _ZN6XmlRpc12XmlRpcServerC2Ev@Base 0
 _ZN6XmlRpc12XmlRpcServerD0Ev@Base 0
 _ZN6XmlRpc12XmlRpcServerD1Ev@Base 0
 _ZN6XmlRpc12XmlRpcServerD2Ev@Base 0
 _ZN6XmlRpc12XmlRpcSocket11getErrorMsgB5cxx11Ei@Base 0
 _ZN6XmlRpc12XmlRpcSocket11getErrorMsgB5cxx11Ev@Base 0
 _ZN6XmlRpc12XmlRpcSocket12setReuseAddrEi@Base 0
 _ZN6XmlRpc12XmlRpcSocket13nonFatalErrorEv@Base 0
 _ZN6XmlRpc12XmlRpcSocket14setNonBlockingEi@Base 0
 _ZN6XmlRpc12XmlRpcSocket4bindEii@Base 0
 _ZN6XmlRpc12XmlRpcSocket5closeEi@Base 0
 _ZN6XmlRpc12XmlRpcSocket6acceptEi@Base 0
 _ZN6XmlRpc12XmlRpcSocket6listenEii@Base 0
 _ZN6XmlRpc12XmlRpcSocket6socketEv@Base 0
 _ZN6XmlRpc12XmlRpcSocket7connectEiRNSt7__cxx1112basic_stringIcSt11char_traitsIcESaIcEEEi@Base 0
 _ZN6XmlRpc12XmlRpcSocket7getPortEi@Base 0
 _ZN6XmlRpc12XmlRpcSocket8getErrorEv@Base 0
 _ZN6XmlRpc12XmlRpcSource13setSslEnabledEb@Base 0
 _ZN6XmlRpc12XmlRpcSource5closeEv@Base 0
 _ZN6XmlRpc12XmlRpcSource6nbReadERNSt7__cxx1112basic_stringIcSt11char_traitsIcESaIcEEEPb@Base 0
 _ZN6XmlRpc12XmlRpcSource7nbWriteERKNSt7__cxx1112basic_stringIcSt11char_traitsIcESaIcEEEPi@Base 0
 _ZN6XmlRpc12XmlRpcSource9doConnectEv@Base 0
 _ZN6XmlRpc12XmlRpcSourceC1Eib@Base 0
 _ZN6XmlRpc12XmlRpcSourceC2Eib@Base 0
 _ZN6XmlRpc12XmlRpcSourceD0Ev@Base 0
 _ZN6XmlRpc12XmlRpcSourceD1Ev@Base 0
 _ZN6XmlRpc12XmlRpcSourceD2Ev@Base 0
 _ZN6XmlRpc12getVerbosityEv@Base 0
 _ZN6XmlRpc12setVerbosityEi@Base 0
 _ZN6XmlRpc14XMLRPC_VERSIONE@Base 0
 _ZN6XmlRpc14XmlRpcDispatch12removeSourceEPNS_12XmlRpcSourceE@Base 0
 _ZN6XmlRpc14XmlRpcDispatch15setSourceEventsEPNS_12XmlRpcSourceEj@Base 0
 _ZN6XmlRpc14XmlRpcDispatch23waitForAndProcessEventsEd@Base 0
 _ZN6XmlRpc14XmlRpcDispatch4exitEv@Base 0
 _ZN6XmlRpc14XmlRpcDispatch4workEd@Base 0
 _ZN6XmlRpc14XmlRpcDispatch5clearEv@Base 0
 _ZN6XmlRpc14XmlRpcDispatch7getTimeEv@Base 0
 _ZN6XmlRpc14XmlRpcDispatch9addSourceEPNS_12XmlRpcSourceEj@Base 0
 _ZN6XmlRpc14XmlRpcDispatchC1Ev@Base 0
 _ZN6XmlRpc14XmlRpcDispatchC2Ev@Base 0
 _ZN6XmlRpc14XmlRpcDispatchD1Ev@Base 0
 _ZN6XmlRpc14XmlRpcDispatchD2Ev@Base 0
 _ZN6XmlRpc15XmlRpcExceptionD1Ev@Base 0
 _ZN6XmlRpc15XmlRpcExceptionD2Ev@Base 0
 _ZN6XmlRpc16XmlRpcLogHandler10_verbosityE@Base 0
 _ZN6XmlRpc16XmlRpcLogHandler11_logHandlerE@Base 0
 _ZN6XmlRpc18XmlRpcErrorHandler13_errorHandlerE@Base 0
 _ZN6XmlRpc18XmlRpcServerMethod4helpB5cxx11Ev@Base 0
 _ZN6XmlRpc18XmlRpcServerMethodC1ERKNSt7__cxx1112basic_stringIcSt11char_traitsIcESaIcEEEPNS_12XmlRpcServerE@Base 0
 _ZN6XmlRpc18XmlRpcServerMethodC2ERKNSt7__cxx1112basic_stringIcSt11char_traitsIcESaIcEEEPNS_12XmlRpcServerE@Base 0
 _ZN6XmlRpc18XmlRpcServerMethodD0Ev@Base 0
 _ZN6XmlRpc18XmlRpcServerMethodD1Ev@Base 0
 _ZN6XmlRpc18XmlRpcServerMethodD2Ev@Base 0
 _ZN6XmlRpc22XmlRpcServerConnection10readHeaderEv@Base 0
 _ZN6XmlRpc22XmlRpcServerConnection11handleEventEj@Base 0
 _ZN6XmlRpc22XmlRpcServerConnection11readRequestEv@Base 0
 _ZN6XmlRpc22XmlRpcServerConnection13writeResponseEv@Base 0
 _ZN6XmlRpc22XmlRpcServerConnection14executeRequestEv@Base 0
 _ZN6XmlRpc22XmlRpcServerConnectionC1EiPNS_12XmlRpcServerEb@Base 0
 _ZN6XmlRpc22XmlRpcServerConnectionC2EiPNS_12XmlRpcServerEb@Base 0
 _ZN6XmlRpc22XmlRpcServerConnectionD0Ev@Base 0
 _ZN6XmlRpc22XmlRpcServerConnectionD1Ev@Base 0
 _ZN6XmlRpc22XmlRpcServerConnectionD2Ev@Base 0
 _ZNK6XmlRpc11XmlRpcValue10arrayToXmlB5cxx11Ev@Base 0
 _ZNK6XmlRpc11XmlRpcValue10assertTypeENS0_4TypeE@Base 0
 _ZNK6XmlRpc11XmlRpcValue11assertArrayEi@Base 0
 _ZNK6XmlRpc11XmlRpcValue11binaryToXmlB5cxx11Ev@Base 0
 _ZNK6XmlRpc11XmlRpcValue11doubleToXmlB5cxx11Ev@Base 0
 _ZNK6XmlRpc11XmlRpcValue11stringToXmlB5cxx11Ev@Base 0
 _ZNK6XmlRpc11XmlRpcValue11structToXmlB5cxx11Ev@Base 0
 _ZNK6XmlRpc11XmlRpcValue4sizeEv@Base 0
 _ZNK6XmlRpc11XmlRpcValue5toXmlB5cxx11Ev@Base 0
 _ZNK6XmlRpc11XmlRpcValue5writeERSo@Base 0
 _ZNK6XmlRpc11XmlRpcValue8intToXmlB5cxx11Ev@Base 0
 _ZNK6XmlRpc11XmlRpcValue8nilToXmlB5cxx11Ev@Base 0
 _ZNK6XmlRpc11XmlRpcValue9boolToXmlB5cxx11Ev@Base 0
 _ZNK6XmlRpc11XmlRpcValue9hasMemberERKNSt7__cxx1112basic_stringIcSt11char_traitsIcESaIcEEE@Base 0
 _ZNK6XmlRpc11XmlRpcValue9timeToXmlB5cxx11Ev@Base 0
 _ZNK6XmlRpc11XmlRpcValueeqERKS0_@Base 0
 _ZNK6XmlRpc11XmlRpcValueneERKS0_@Base 0
 _ZNK6XmlRpc12XmlRpcServer10findMethodERKNSt7__cxx1112basic_stringIcSt11char_traitsIcESaIcEEE@Base 0
 _ZNK6XmlRpc12XmlRpcServer7getPortEv@Base 0
 _ZNKSt5ctypeIcE8do_widenEc@Base 0
 _ZNSt3mapINSt7__cxx1112basic_stringIcSt11char_traitsIcESaIcEEEN6XmlRpc11XmlRpcValueESt4lessIS5_ESaISt4pairIKS5_S7_EEEixERSB_@Base 0
 _ZNSt6vectorIN6XmlRpc11XmlRpcValueESaIS1_EE17_M_default_appendEm@Base 0
 _ZNSt6vectorIN6XmlRpc11XmlRpcValueESaIS1_EE17_M_realloc_insertIJRKS1_EEEvN9__gnu_cxx17__normal_iteratorIPS1_S3_EEDpOT_@Base 0
 _ZNSt6vectorIN6XmlRpc14XmlRpcDispatch15MonitoredSourceESaIS2_EE17_M_realloc_insertIJS2_EEEvN9__gnu_cxx17__normal_iteratorIPS2_S4_EEDpOT_@Base 0
 _ZNSt6vectorIcSaIcEE12emplace_backIJcEEEvDpOT_@Base 0
 _ZNSt6vectorIhSaIhEE12emplace_backIJhEEEvDpOT_@Base 0
 _ZNSt7__cxx1112basic_stringIcSt11char_traitsIcESaIcEE12_M_constructIPKcEEvT_S8_St20forward_iterator_tag@Base 0
 _ZNSt7__cxx1112basic_stringIcSt11char_traitsIcESaIcEE12_M_constructIPcEEvT_S7_St20forward_iterator_tag@Base 0
 _ZNSt8_Rb_treeINSt7__cxx1112basic_stringIcSt11char_traitsIcESaIcEEESt4pairIKS5_N6XmlRpc11XmlRpcValueEESt10_Select1stISA_ESt4lessIS5_ESaISA_EE16_M_insert_uniqueIRKSA_EES6_ISt17_Rb_tree_iteratorISA_EbEOT_@Base 0
 _ZNSt8_Rb_treeINSt7__cxx1112basic_stringIcSt11char_traitsIcESaIcEEESt4pairIKS5_N6XmlRpc11XmlRpcValueEESt10_Select1stISA_ESt4lessIS5_ESaISA_EE22_M_emplace_hint_uniqueIJRKSt21piecewise_construct_tSt5tupleIJRS7_EESL_IJEEEEESt17_Rb_tree_iteratorISA_ESt23_Rb_tree_const_iteratorISA_EDpOT_@Base 0
 _ZNSt8_Rb_treeINSt7__cxx1112basic_stringIcSt11char_traitsIcESaIcEEESt4pairIKS5_N6XmlRpc11XmlRpcValueEESt10_Select1stISA_ESt4lessIS5_ESaISA_EE24_M_get_insert_unique_posERS7_@Base 0
 _ZNSt8_Rb_treeINSt7__cxx1112basic_stringIcSt11char_traitsIcESaIcEEESt4pairIKS5_N6XmlRpc11XmlRpcValueEESt10_Select1stISA_ESt4lessIS5_ESaISA_EE29_M_get_insert_hint_unique_posESt23_Rb_tree_const_iteratorISA_ERS7_@Base 0
 _ZNSt8_Rb_treeINSt7__cxx1112basic_stringIcSt11char_traitsIcESaIcEEESt4pairIKS5_N6XmlRpc11XmlRpcValueEESt10_Select1stISA_ESt4lessIS5_ESaISA_EE7_M_copyINSG_11_Alloc_nodeEEEPSt13_Rb_tree_nodeISA_EPKSK_PSt18_Rb_tree_node_baseRT_@Base 0
 _ZNSt8_Rb_treeINSt7__cxx1112basic_stringIcSt11char_traitsIcESaIcEEESt4pairIKS5_N6XmlRpc11XmlRpcValueEESt10_Select1stISA_ESt4lessIS5_ESaISA_EE8_M_eraseEPSt13_Rb_tree_nodeISA_E@Base 0
 _ZNSt8_Rb_treeINSt7__cxx1112basic_stringIcSt11char_traitsIcESaIcEEESt4pairIKS5_PN6XmlRpc18XmlRpcServerMethodEESt10_Select1stISB_ESt4lessIS5_ESaISB_EE22_M_emplace_hint_uniqueIJRKSt21piecewise_construct_tSt5tupleIJRS7_EESM_IJEEEEESt17_Rb_tree_iteratorISB_ESt23_Rb_tree_const_iteratorISB_EDpOT_@Base 0
 _ZNSt8_Rb_treeINSt7__cxx1112basic_stringIcSt11char_traitsIcESaIcEEESt4pairIKS5_PN6XmlRpc18XmlRpcServerMethodEESt10_Select1stISB_ESt4lessIS5_ESaISB_EE24_M_get_insert_unique_posERS7_@Base 0
 _ZNSt8_Rb_treeINSt7__cxx1112basic_stringIcSt11char_traitsIcESaIcEEESt4pairIKS5_PN6XmlRpc18XmlRpcServerMethodEESt10_Select1stISB_ESt4lessIS5_ESaISB_EE29_M_get_insert_hint_unique_posESt23_Rb_tree_const_iteratorISB_ERS7_@Base 0
 _ZNSt8_Rb_treeINSt7__cxx1112basic_stringIcSt11char_traitsIcESaIcEEESt4pairIKS5_PN6XmlRpc18XmlRpcServerMethodEESt10_Select1stISB_ESt4lessIS5_ESaISB_EE4findERS7_@Base 0
 _ZNSt8_Rb_treeINSt7__cxx1112basic_stringIcSt11char_traitsIcESaIcEEESt4pairIKS5_PN6XmlRpc18XmlRpcServerMethodEESt10_Select1stISB_ESt4lessIS5_ESaISB_EE8_M_eraseEPSt13_Rb_tree_nodeISB_E@Base 0
 _ZStplIcSt11char_traitsIcESaIcEENSt7__cxx1112basic_stringIT_T0_T1_EERKS8_PKS5_@Base 0
 _ZStplIcSt11char_traitsIcESaIcEENSt7__cxx1112basic_stringIT_T0_T1_EERKS8_SA_@Base 0
 _ZTI10MethodHelp@Base 0
 _ZTI11ListMethods@Base 0
 _ZTI17DefaultLogHandler@Base 0
 _ZTI19DefaultErrorHandler@Base 0
 _ZTIN6XmlRpc12XmlRpcClientE@Base 0
 _ZTIN6XmlRpc12XmlRpcServerE@Base 0
 _ZTIN6XmlRpc12XmlRpcSourceE@Base 0
 _ZTIN6XmlRpc15XmlRpcExceptionE@Base 0
 _ZTIN6XmlRpc16XmlRpcLogHandlerE@Base 0
 _ZTIN6XmlRpc18XmlRpcErrorHandlerE@Base 0
 _ZTIN6XmlRpc18XmlRpcServerMethodE@Base 0
 _ZTIN6XmlRpc22XmlRpcServerConnectionE@Base 0
 _ZTS10MethodHelp@Base 0
 _ZTS11ListMethods@Base 0
 _ZTS17DefaultLogHandler@Base 0
 _ZTS19DefaultErrorHandler@Base 0
 _ZTSN6XmlRpc12XmlRpcClientE@Base 0
 _ZTSN6XmlRpc12XmlRpcServerE@Base 0
 _ZTSN6XmlRpc12XmlRpcSourceE@Base 0
 _ZTSN6XmlRpc15XmlRpcExceptionE@Base 0
 _ZTSN6XmlRpc16XmlRpcLogHandlerE@Base 0
 _ZTSN6XmlRpc18XmlRpcErrorHandlerE@Base 0
 _ZTSN6XmlRpc18XmlRpcServerMethodE@Base 0
 _ZTSN6XmlRpc22XmlRpcServerConnectionE@Base 0
 _ZTV10MethodHelp@Base 0
 _ZTV11ListMethods@Base 0
 _ZTV17DefaultLogHandler@Base 0
 _ZTV19DefaultErrorHandler@Base 0
 _ZTVN6XmlRpc12XmlRpcClientE@Base 0
 _ZTVN6XmlRpc12XmlRpcServerE@Base 0
 _ZTVN6XmlRpc12XmlRpcSourceE@Base 0
 _ZTVN6XmlRpc18XmlRpcServerMethodE@Base 0
 _ZTVN6XmlRpc22XmlRpcServerConnectionE@Base 0
 _ZlsRSoRN6XmlRpc11XmlRpcValueE@Base 0
